target datalayout = "e-m:e-p270:32:32-p271:32:32-p272:64:64-i64:64-i128:128-f80:128-n8:16:32:64-S128"
target triple = "x86_64-pc-linux-gnu"

%"class.google::protobuf::io::ZeroCopyInputStream" = type { ptr }
%"class.google::protobuf::internal::LogMessage" = type { i32, ptr, i32, %"class.std::__cxx11::basic_string" }
%"class.std::__cxx11::basic_string" = type { %"struct.std::__cxx11::basic_string<char>::_Alloc_hider", i64, %union.anon }
%"struct.std::__cxx11::basic_string<char>::_Alloc_hider" = type { ptr }
%union.anon = type { i64, [8 x i8] }
%"class.google::protobuf::internal::LogFinisher" = type { i8 }
%"class.google::protobuf::io::CopyingInputStreamAdaptor" = type <{ %"class.google::protobuf::io::ZeroCopyInputStream", ptr, i8, i8, [6 x i8], i64, %"class.std::unique_ptr", i32, i32, i32, [4 x i8] }>
%"class.std::unique_ptr" = type { %"struct.std::__uniq_ptr_data" }
%"struct.std::__uniq_ptr_data" = type { %"class.std::__uniq_ptr_impl" }
%"class.std::__uniq_ptr_impl" = type { %"class.std::tuple" }
%"class.std::tuple" = type { %"struct.std::_Tuple_impl" }
%"struct.std::_Tuple_impl" = type { %"struct.std::_Head_base.1" }
%"struct.std::_Head_base.1" = type { ptr }

@.str = private unnamed_addr constant [162 x i8] c"generated/home/dtcxzyw/WorkSpace/Projects/compilers/llvm-opt-benchmark/bench/opencv/opencv/3rdparty/protobuf/src/google/protobuf/io/zero_copy_stream_impl_lite.cc\00", align 1
@.str.4 = private unnamed_addr constant [31 x i8] c"CHECK failed: (count) >= (0): \00", align 1
@.str.7 = private unnamed_addr constant [60 x i8] c"CHECK failed: backup_bytes_ == 0 && buffer_.get() != NULL: \00", align 1
@.str.8 = private unnamed_addr constant [43 x i8] c" BackUp() can only be called after Next().\00", align 1
@.str.9 = private unnamed_addr constant [42 x i8] c"CHECK failed: (count) <= (buffer_used_): \00", align 1
@.str.10 = private unnamed_addr constant [78 x i8] c" Can't back up over more bytes than were returned by the last call to Next().\00", align 1
@.str.11 = private unnamed_addr constant [42 x i8] c" Parameter to BackUp() can't be negative.\00", align 1

; Function Attrs: mustprogress nounwind uwtable
define linkonce_odr hidden noundef nonnull align 8 dereferenceable(8) ptr @_ZNSt10_Head_baseILm0EPhLb0EE7_M_headERKS1_(ptr noundef nonnull align 8 dereferenceable(8) %0) #5 comdat align 2 {
  %2 = alloca ptr, align 8
  store ptr %0, ptr %2, align 8, !tbaa !112
  %3 = load ptr, ptr %2, align 8, !tbaa !112
  %4 = getelementptr inbounds nuw %"struct.std::_Head_base.1", ptr %3, i32 0, i32 0
  ret ptr %4
}

; Function Attrs: mustprogress nounwind uwtable
define linkonce_odr hidden noundef nonnull align 8 dereferenceable(8) ptr @_ZNSt11_Tuple_implILm0EJPhSt14default_deleteIA_hEEE7_M_headERKS4_(ptr noundef nonnull align 8 dereferenceable(8) %0) #5 comdat align 2 {
  %2 = alloca ptr, align 8
  store ptr %0, ptr %2, align 8, !tbaa !108
  %3 = load ptr, ptr %2, align 8, !tbaa !108
  %4 = call noundef nonnull align 8 dereferenceable(8) ptr @_ZNSt10_Head_baseILm0EPhLb0EE7_M_headERKS1_(ptr noundef nonnull align 8 dereferenceable(8) %3) #3
  ret ptr %4
}

; Function Attrs: mustprogress nounwind uwtable
define linkonce_odr noundef nonnull align 8 dereferenceable(8) ptr @_ZSt12__get_helperILm0EPhJSt14default_deleteIA_hEEERKT0_RKSt11_Tuple_implIXT_EJS4_DpT1_EE(ptr noundef nonnull align 8 dereferenceable(8) %0) #5 comdat {
  %2 = alloca ptr, align 8
  store ptr %0, ptr %2, align 8, !tbaa !108
  %3 = load ptr, ptr %2, align 8, !tbaa !108
  %4 = call noundef nonnull align 8 dereferenceable(8) ptr @_ZNSt11_Tuple_implILm0EJPhSt14default_deleteIA_hEEE7_M_headERKS4_(ptr noundef nonnull align 8 dereferenceable(8) %3) #3
  ret ptr %4
}

; Function Attrs: mustprogress nounwind uwtable
define linkonce_odr noundef nonnull align 8 dereferenceable(8) ptr @_ZSt3getILm0EJPhSt14default_deleteIA_hEEERKNSt13tuple_elementIXT_ESt5tupleIJDpT0_EEE4typeERKS8_(ptr noundef nonnull align 8 dereferenceable(8) %0) #5 comdat {
  %2 = alloca ptr, align 8
  store ptr %0, ptr %2, align 8, !tbaa !106
  %3 = load ptr, ptr %2, align 8, !tbaa !106
  %4 = call noundef nonnull align 8 dereferenceable(8) ptr @_ZSt12__get_helperILm0EPhJSt14default_deleteIA_hEEERKT0_RKSt11_Tuple_implIXT_EJS4_DpT1_EE(ptr noundef nonnull align 8 dereferenceable(8) %3) #3
  ret ptr %4
}

; Function Attrs: mustprogress nounwind uwtable
define linkonce_odr hidden noundef ptr @_ZNKSt15__uniq_ptr_implIhSt14default_deleteIA_hEE6_M_ptrEv(ptr noundef nonnull align 8 dereferenceable(8) %0) #5 comdat align 2 {
  %2 = alloca ptr, align 8
  store ptr %0, ptr %2, align 8, !tbaa !104
  %3 = load ptr, ptr %2, align 8
  %4 = getelementptr inbounds nuw %"class.std::__uniq_ptr_impl", ptr %3, i32 0, i32 0
  %5 = call noundef nonnull align 8 dereferenceable(8) ptr @_ZSt3getILm0EJPhSt14default_deleteIA_hEEERKNSt13tuple_elementIXT_ESt5tupleIJDpT0_EEE4typeERKS8_(ptr noundef nonnull align 8 dereferenceable(8) %4) #3
  %6 = load ptr, ptr %5, align 8, !tbaa !79
  ret ptr %6
}

; Function Attrs: mustprogress nounwind uwtable
define linkonce_odr hidden noundef ptr @_ZNKSt10unique_ptrIA_hSt14default_deleteIS0_EE3getEv(ptr noundef nonnull align 8 dereferenceable(8) %0) #5 comdat align 2 {
  %2 = alloca ptr, align 8
  store ptr %0, ptr %2, align 8, !tbaa !73
  %3 = load ptr, ptr %2, align 8
  %4 = getelementptr inbounds nuw %"class.std::unique_ptr", ptr %3, i32 0, i32 0
  %5 = call noundef ptr @_ZNKSt15__uniq_ptr_implIhSt14default_deleteIA_hEE6_M_ptrEv(ptr noundef nonnull align 8 dereferenceable(8) %4) #3
  ret ptr %5
}

; Function Attrs: mustprogress uwtable
define hidden void @_ZN6google8protobuf2io25CopyingInputStreamAdaptor6BackUpEi(ptr noundef nonnull align 8 dereferenceable(52) %0, i32 noundef %1) unnamed_addr #4 align 2 personality ptr @__gxx_personality_v0 {
  %3 = alloca ptr, align 8
  %4 = alloca i32, align 4
  %5 = alloca %"class.google::protobuf::internal::LogMessage", align 8
  %6 = alloca i1, align 1
  %7 = alloca i1, align 1
  %8 = alloca ptr, align 8
  %9 = alloca i32, align 4
  %10 = alloca %"class.google::protobuf::internal::LogFinisher", align 1
  %11 = alloca %"class.google::protobuf::internal::LogMessage", align 8
  %12 = alloca i1, align 1
  %13 = alloca i1, align 1
  %14 = alloca %"class.google::protobuf::internal::LogFinisher", align 1
  %15 = alloca %"class.google::protobuf::internal::LogMessage", align 8
  %16 = alloca i1, align 1
  %17 = alloca i1, align 1
  %18 = alloca %"class.google::protobuf::internal::LogFinisher", align 1
  store ptr %0, ptr %3, align 8, !tbaa !56
  store i32 %1, ptr %4, align 4, !tbaa !9
  %19 = load ptr, ptr %3, align 8
  %20 = getelementptr inbounds nuw %"class.google::protobuf::io::CopyingInputStreamAdaptor", ptr %19, i32 0, i32 9
  %21 = load i32, ptr %20, align 8, !tbaa !72
  %22 = icmp eq i32 %21, 0
  store i1 false, ptr %6, align 1
  store i1 false, ptr %7, align 1
  call void @llvm.lifetime.start.p0(i64 1, ptr %10) #3
  br i1 %22, label %23, label %28

23:                                               ; preds = %2
  %24 = getelementptr inbounds nuw %"class.google::protobuf::io::CopyingInputStreamAdaptor", ptr %19, i32 0, i32 6
  %25 = call noundef ptr @_ZNKSt10unique_ptrIA_hSt14default_deleteIS0_EE3getEv(ptr noundef nonnull align 8 dereferenceable(8) %24) #3
  %26 = icmp ne ptr %25, null
  br i1 %26, label %27, label %28

27:                                               ; preds = %23
  br label %34

28:                                               ; preds = %23, %2
  call void @llvm.lifetime.start.p0(i64 56, ptr %5) #3
  store i1 true, ptr %6, align 1
  call void @_ZN6google8protobuf8internal10LogMessageC1ENS0_8LogLevelEPKci(ptr noundef nonnull align 8 dereferenceable(56) %5, i32 noundef 3, ptr noundef @.str, i32 noundef 248)
  store i1 true, ptr %7, align 1
  %29 = invoke noundef nonnull align 8 dereferenceable(56) ptr @_ZN6google8protobuf8internal10LogMessagelsEPKc(ptr noundef nonnull align 8 dereferenceable(56) %5, ptr noundef @.str.7)
          to label %30 unwind label %77

30:                                               ; preds = %28
  %31 = invoke noundef nonnull align 8 dereferenceable(56) ptr @_ZN6google8protobuf8internal10LogMessagelsEPKc(ptr noundef nonnull align 8 dereferenceable(56) %29, ptr noundef @.str.8)
          to label %32 unwind label %77

32:                                               ; preds = %30
  invoke void @_ZN6google8protobuf8internal11LogFinisheraSERNS1_10LogMessageE(ptr noundef nonnull align 1 dereferenceable(1) %10, ptr noundef nonnull align 8 dereferenceable(56) %31)
          to label %33 unwind label %81

33:                                               ; preds = %32
  br label %34

34:                                               ; preds = %33, %27
  call void @llvm.lifetime.end.p0(i64 1, ptr %10) #3
  %35 = load i1, ptr %7, align 1
  br i1 %35, label %36, label %37

36:                                               ; preds = %34
  call void @_ZN6google8protobuf8internal10LogMessageD1Ev(ptr noundef nonnull align 8 dereferenceable(56) %5) #3
  br label %37

37:                                               ; preds = %36, %34
  %38 = load i1, ptr %6, align 1
  br i1 %38, label %39, label %40

39:                                               ; preds = %37
  call void @llvm.lifetime.end.p0(i64 56, ptr %5) #3
  br label %40

40:                                               ; preds = %39, %37
  %41 = load i32, ptr %4, align 4, !tbaa !9
  %42 = getelementptr inbounds nuw %"class.google::protobuf::io::CopyingInputStreamAdaptor", ptr %19, i32 0, i32 8
  %43 = load i32, ptr %42, align 4, !tbaa !71
  %44 = icmp sle i32 %41, %43
  store i1 false, ptr %12, align 1
  store i1 false, ptr %13, align 1
  call void @llvm.lifetime.start.p0(i64 1, ptr %14) #3
  br i1 %44, label %45, label %46

45:                                               ; preds = %40
  br label %52

46:                                               ; preds = %40
  call void @llvm.lifetime.start.p0(i64 56, ptr %11) #3
  store i1 true, ptr %12, align 1
  call void @_ZN6google8protobuf8internal10LogMessageC1ENS0_8LogLevelEPKci(ptr noundef nonnull align 8 dereferenceable(56) %11, i32 noundef 3, ptr noundef @.str, i32 noundef 250)
  store i1 true, ptr %13, align 1
  %47 = invoke noundef nonnull align 8 dereferenceable(56) ptr @_ZN6google8protobuf8internal10LogMessagelsEPKc(ptr noundef nonnull align 8 dereferenceable(56) %11, ptr noundef @.str.9)
          to label %48 unwind label %92

48:                                               ; preds = %46
  %49 = invoke noundef nonnull align 8 dereferenceable(56) ptr @_ZN6google8protobuf8internal10LogMessagelsEPKc(ptr noundef nonnull align 8 dereferenceable(56) %47, ptr noundef @.str.10)
          to label %50 unwind label %92

50:                                               ; preds = %48
  invoke void @_ZN6google8protobuf8internal11LogFinisheraSERNS1_10LogMessageE(ptr noundef nonnull align 1 dereferenceable(1) %14, ptr noundef nonnull align 8 dereferenceable(56) %49)
          to label %51 unwind label %96

51:                                               ; preds = %50
  br label %52

52:                                               ; preds = %51, %45
  call void @llvm.lifetime.end.p0(i64 1, ptr %14) #3
  %53 = load i1, ptr %13, align 1
  br i1 %53, label %54, label %55

54:                                               ; preds = %52
  call void @_ZN6google8protobuf8internal10LogMessageD1Ev(ptr noundef nonnull align 8 dereferenceable(56) %11) #3
  br label %55

55:                                               ; preds = %54, %52
  %56 = load i1, ptr %12, align 1
  br i1 %56, label %57, label %58

57:                                               ; preds = %55
  call void @llvm.lifetime.end.p0(i64 56, ptr %11) #3
  br label %58

58:                                               ; preds = %57, %55
  %59 = load i32, ptr %4, align 4, !tbaa !9
  %60 = icmp sge i32 %59, 0
  store i1 false, ptr %16, align 1
  store i1 false, ptr %17, align 1
  call void @llvm.lifetime.start.p0(i64 1, ptr %18) #3
  br i1 %60, label %61, label %62

61:                                               ; preds = %58
  br label %68

62:                                               ; preds = %58
  call void @llvm.lifetime.start.p0(i64 56, ptr %15) #3
  store i1 true, ptr %16, align 1
  call void @_ZN6google8protobuf8internal10LogMessageC1ENS0_8LogLevelEPKci(ptr noundef nonnull align 8 dereferenceable(56) %15, i32 noundef 3, ptr noundef @.str, i32 noundef 253)
  store i1 true, ptr %17, align 1
  %63 = invoke noundef nonnull align 8 dereferenceable(56) ptr @_ZN6google8protobuf8internal10LogMessagelsEPKc(ptr noundef nonnull align 8 dereferenceable(56) %15, ptr noundef @.str.4)
          to label %64 unwind label %107

64:                                               ; preds = %62
  %65 = invoke noundef nonnull align 8 dereferenceable(56) ptr @_ZN6google8protobuf8internal10LogMessagelsEPKc(ptr noundef nonnull align 8 dereferenceable(56) %63, ptr noundef @.str.11)
          to label %66 unwind label %107

66:                                               ; preds = %64
  invoke void @_ZN6google8protobuf8internal11LogFinisheraSERNS1_10LogMessageE(ptr noundef nonnull align 1 dereferenceable(1) %18, ptr noundef nonnull align 8 dereferenceable(56) %65)
          to label %67 unwind label %111

67:                                               ; preds = %66
  br label %68

68:                                               ; preds = %67, %61
  call void @llvm.lifetime.end.p0(i64 1, ptr %18) #3
  %69 = load i1, ptr %17, align 1
  br i1 %69, label %70, label %71

70:                                               ; preds = %68
  call void @_ZN6google8protobuf8internal10LogMessageD1Ev(ptr noundef nonnull align 8 dereferenceable(56) %15) #3
  br label %71

71:                                               ; preds = %70, %68
  %72 = load i1, ptr %16, align 1
  br i1 %72, label %73, label %74

73:                                               ; preds = %71
  call void @llvm.lifetime.end.p0(i64 56, ptr %15) #3
  br label %74

74:                                               ; preds = %73, %71
  %75 = load i32, ptr %4, align 4, !tbaa !9
  %76 = getelementptr inbounds nuw %"class.google::protobuf::io::CopyingInputStreamAdaptor", ptr %19, i32 0, i32 9
  store i32 %75, ptr %76, align 8, !tbaa !72
  ret void

77:                                               ; preds = %30, %28
  %78 = landingpad { ptr, i32 }
          cleanup
  %79 = extractvalue { ptr, i32 } %78, 0
  store ptr %79, ptr %8, align 8
  %80 = extractvalue { ptr, i32 } %78, 1
  store i32 %80, ptr %9, align 4
  br label %85

81:                                               ; preds = %32
  %82 = landingpad { ptr, i32 }
          cleanup
  %83 = extractvalue { ptr, i32 } %82, 0
  store ptr %83, ptr %8, align 8
  %84 = extractvalue { ptr, i32 } %82, 1
  store i32 %84, ptr %9, align 4
  call void @llvm.lifetime.end.p0(i64 1, ptr %10) #3
  br label %85

85:                                               ; preds = %81, %77
  %86 = load i1, ptr %7, align 1
  br i1 %86, label %87, label %88

87:                                               ; preds = %85
  call void @_ZN6google8protobuf8internal10LogMessageD1Ev(ptr noundef nonnull align 8 dereferenceable(56) %5) #3
  br label %88

88:                                               ; preds = %87, %85
  %89 = load i1, ptr %6, align 1
  br i1 %89, label %90, label %91

90:                                               ; preds = %88
  call void @llvm.lifetime.end.p0(i64 56, ptr %5) #3
  br label %91

91:                                               ; preds = %90, %88
  br label %122

92:                                               ; preds = %48, %46
  %93 = landingpad { ptr, i32 }
          cleanup
  %94 = extractvalue { ptr, i32 } %93, 0
  store ptr %94, ptr %8, align 8
  %95 = extractvalue { ptr, i32 } %93, 1
  store i32 %95, ptr %9, align 4
  br label %100

96:                                               ; preds = %50
  %97 = landingpad { ptr, i32 }
          cleanup
  %98 = extractvalue { ptr, i32 } %97, 0
  store ptr %98, ptr %8, align 8
  %99 = extractvalue { ptr, i32 } %97, 1
  store i32 %99, ptr %9, align 4
  call void @llvm.lifetime.end.p0(i64 1, ptr %14) #3
  br label %100

100:                                              ; preds = %96, %92
  %101 = load i1, ptr %13, align 1
  br i1 %101, label %102, label %103

102:                                              ; preds = %100
  call void @_ZN6google8protobuf8internal10LogMessageD1Ev(ptr noundef nonnull align 8 dereferenceable(56) %11) #3
  br label %103

103:                                              ; preds = %102, %100
  %104 = load i1, ptr %12, align 1
  br i1 %104, label %105, label %106

105:                                              ; preds = %103
  call void @llvm.lifetime.end.p0(i64 56, ptr %11) #3
  br label %106

106:                                              ; preds = %105, %103
  br label %122

107:                                              ; preds = %64, %62
  %108 = landingpad { ptr, i32 }
          cleanup
  %109 = extractvalue { ptr, i32 } %108, 0
  store ptr %109, ptr %8, align 8
  %110 = extractvalue { ptr, i32 } %108, 1
  store i32 %110, ptr %9, align 4
  br label %115

111:                                              ; preds = %66
  %112 = landingpad { ptr, i32 }
          cleanup
  %113 = extractvalue { ptr, i32 } %112, 0
  store ptr %113, ptr %8, align 8
  %114 = extractvalue { ptr, i32 } %112, 1
  store i32 %114, ptr %9, align 4
  call void @llvm.lifetime.end.p0(i64 1, ptr %18) #3
  br label %115

115:                                              ; preds = %111, %107
  %116 = load i1, ptr %17, align 1
  br i1 %116, label %117, label %118

117:                                              ; preds = %115
  call void @_ZN6google8protobuf8internal10LogMessageD1Ev(ptr noundef nonnull align 8 dereferenceable(56) %15) #3
  br label %118

118:                                              ; preds = %117, %115
  %119 = load i1, ptr %16, align 1
  br i1 %119, label %120, label %121

120:                                              ; preds = %118
  call void @llvm.lifetime.end.p0(i64 56, ptr %15) #3
  br label %121

121:                                              ; preds = %120, %118
  br label %122

122:                                              ; preds = %121, %106, %91
  %123 = load ptr, ptr %8, align 8
  %124 = load i32, ptr %9, align 4
  %125 = insertvalue { ptr, i32 } poison, ptr %123, 0
  %126 = insertvalue { ptr, i32 } %125, i32 %124, 1
  resume { ptr, i32 } %126
}