; Function Attrs: mustprogress uwtable
define hidden void @_ZN6google8protobuf2io25CopyingInputStreamAdaptor6BackUpEi(ptr noundef nonnull align 8 captures(none) dereferenceable(52) %0, i32 noundef %1) unnamed_addr #6 align 2 personality ptr @__gxx_personality_v0 {
  %3 = alloca %"class.google::protobuf::internal::LogMessage", align 8
  %4 = alloca %"class.google::protobuf::internal::LogFinisher", align 1
  %5 = alloca %"class.google::protobuf::internal::LogMessage", align 8
  %6 = alloca %"class.google::protobuf::internal::LogFinisher", align 1
  %7 = alloca %"class.google::protobuf::internal::LogMessage", align 8
  %8 = alloca %"class.google::protobuf::internal::LogFinisher", align 1
  %9 = getelementptr inbounds nuw i8, ptr %0, i64 48
  %10 = load i32, ptr %9, align 8, !tbaa !50
  %11 = icmp ne i32 %10, 0
  call void @llvm.lifetime.start.p0(i64 1, ptr nonnull %4) #19
  %12 = getelementptr inbounds nuw i8, ptr %0, i64 32
  %13 = load ptr, ptr %12, align 8
  %.not = icmp eq ptr %13, null
  %or.cond = select i1 %11, i1 true, i1 %.not
  br i1 %or.cond, label %14, label %.critedge.critedge

14:                                               ; preds = %2
  call void @llvm.lifetime.start.p0(i64 56, ptr nonnull %3) #19
  call void @_ZN6google8protobuf8internal10LogMessageC1ENS0_8LogLevelEPKci(ptr noundef nonnull align 8 dereferenceable(56) %3, i32 noundef 3, ptr noundef nonnull @.str, i32 noundef 248)
  %15 = invoke noundef nonnull align 8 dereferenceable(56) ptr @_ZN6google8protobuf8internal10LogMessagelsEPKc(ptr noundef nonnull align 8 dereferenceable(56) %3, ptr noundef nonnull @.str.7)
          to label %16 unwind label %37

16:                                               ; preds = %14
  %17 = invoke noundef nonnull align 8 dereferenceable(56) ptr @_ZN6google8protobuf8internal10LogMessagelsEPKc(ptr noundef nonnull align 8 dereferenceable(56) %15, ptr noundef nonnull @.str.8)
          to label %18 unwind label %37

18:                                               ; preds = %16
  invoke void @_ZN6google8protobuf8internal11LogFinisheraSERNS1_10LogMessageE(ptr noundef nonnull align 1 dereferenceable(1) %4, ptr noundef nonnull align 8 dereferenceable(56) %17)
          to label %19 unwind label %39

19:                                               ; preds = %18
  call void @llvm.lifetime.end.p0(i64 1, ptr nonnull %4) #19
  call void @_ZN6google8protobuf8internal10LogMessageD1Ev(ptr noundef nonnull align 8 dereferenceable(56) %3) #19
  call void @llvm.lifetime.end.p0(i64 56, ptr nonnull %3) #19
  br label %.critedge

.critedge.critedge:                               ; preds = %2
  call void @llvm.lifetime.end.p0(i64 1, ptr nonnull %4) #19
  br label %.critedge

.critedge:                                        ; preds = %.critedge.critedge, %19
  %20 = getelementptr inbounds nuw i8, ptr %0, i64 44
  %21 = load i32, ptr %20, align 4, !tbaa !49
  %.not28 = icmp sgt i32 %1, %21
  call void @llvm.lifetime.start.p0(i64 1, ptr nonnull %6) #19
  br i1 %.not28, label %22, label %27

22:                                               ; preds = %.critedge
  call void @llvm.lifetime.start.p0(i64 56, ptr nonnull %5) #19
  call void @_ZN6google8protobuf8internal10LogMessageC1ENS0_8LogLevelEPKci(ptr noundef nonnull align 8 dereferenceable(56) %5, i32 noundef 3, ptr noundef nonnull @.str, i32 noundef 250)
  %23 = invoke noundef nonnull align 8 dereferenceable(56) ptr @_ZN6google8protobuf8internal10LogMessagelsEPKc(ptr noundef nonnull align 8 dereferenceable(56) %5, ptr noundef nonnull @.str.9)
          to label %24 unwind label %42

24:                                               ; preds = %22
  %25 = invoke noundef nonnull align 8 dereferenceable(56) ptr @_ZN6google8protobuf8internal10LogMessagelsEPKc(ptr noundef nonnull align 8 dereferenceable(56) %23, ptr noundef nonnull @.str.10)
          to label %26 unwind label %42

26:                                               ; preds = %24
  invoke void @_ZN6google8protobuf8internal11LogFinisheraSERNS1_10LogMessageE(ptr noundef nonnull align 1 dereferenceable(1) %6, ptr noundef nonnull align 8 dereferenceable(56) %25)
          to label %28 unwind label %44

27:                                               ; preds = %.critedge
  call void @llvm.lifetime.end.p0(i64 1, ptr nonnull %6) #19
  br label %.critedge37

28:                                               ; preds = %26
  call void @llvm.lifetime.end.p0(i64 1, ptr nonnull %6) #19
  call void @_ZN6google8protobuf8internal10LogMessageD1Ev(ptr noundef nonnull align 8 dereferenceable(56) %5) #19
  call void @llvm.lifetime.end.p0(i64 56, ptr nonnull %5) #19
  br label %.critedge37

.critedge37:                                      ; preds = %27, %28
  %29 = icmp slt i32 %1, 0
  call void @llvm.lifetime.start.p0(i64 1, ptr nonnull %8) #19
  br i1 %29, label %30, label %35

30:                                               ; preds = %.critedge37
  call void @llvm.lifetime.start.p0(i64 56, ptr nonnull %7) #19
  call void @_ZN6google8protobuf8internal10LogMessageC1ENS0_8LogLevelEPKci(ptr noundef nonnull align 8 dereferenceable(56) %7, i32 noundef 3, ptr noundef nonnull @.str, i32 noundef 253)
  %31 = invoke noundef nonnull align 8 dereferenceable(56) ptr @_ZN6google8protobuf8internal10LogMessagelsEPKc(ptr noundef nonnull align 8 dereferenceable(56) %7, ptr noundef nonnull @.str.4)
          to label %32 unwind label %47

32:                                               ; preds = %30
  %33 = invoke noundef nonnull align 8 dereferenceable(56) ptr @_ZN6google8protobuf8internal10LogMessagelsEPKc(ptr noundef nonnull align 8 dereferenceable(56) %31, ptr noundef nonnull @.str.11)
          to label %34 unwind label %47

34:                                               ; preds = %32
  invoke void @_ZN6google8protobuf8internal11LogFinisheraSERNS1_10LogMessageE(ptr noundef nonnull align 1 dereferenceable(1) %8, ptr noundef nonnull align 8 dereferenceable(56) %33)
          to label %36 unwind label %49

35:                                               ; preds = %.critedge37
  call void @llvm.lifetime.end.p0(i64 1, ptr nonnull %8) #19
  br label %.critedge41

36:                                               ; preds = %34
  call void @llvm.lifetime.end.p0(i64 1, ptr nonnull %8) #19
  call void @_ZN6google8protobuf8internal10LogMessageD1Ev(ptr noundef nonnull align 8 dereferenceable(56) %7) #19
  call void @llvm.lifetime.end.p0(i64 56, ptr nonnull %7) #19
  br label %.critedge41

.critedge41:                                      ; preds = %35, %36
  store i32 %1, ptr %9, align 8, !tbaa !50
  ret void

37:                                               ; preds = %16, %14
  %38 = landingpad { ptr, i32 }
          cleanup
  br label %41

39:                                               ; preds = %18
  %40 = landingpad { ptr, i32 }
          cleanup
  call void @llvm.lifetime.end.p0(i64 1, ptr nonnull %4) #19
  br label %41

41:                                               ; preds = %37, %39
  %.pn = phi { ptr, i32 } [ %40, %39 ], [ %38, %37 ]
  call void @_ZN6google8protobuf8internal10LogMessageD1Ev(ptr noundef nonnull align 8 dereferenceable(56) %3) #19
  call void @llvm.lifetime.end.p0(i64 56, ptr nonnull %3) #19
  br label %52

42:                                               ; preds = %24, %22
  %43 = landingpad { ptr, i32 }
          cleanup
  br label %46

44:                                               ; preds = %26
  %45 = landingpad { ptr, i32 }
          cleanup
  call void @llvm.lifetime.end.p0(i64 1, ptr nonnull %6) #19
  br label %46

46:                                               ; preds = %42, %44
  %.pn29 = phi { ptr, i32 } [ %45, %44 ], [ %43, %42 ]
  call void @_ZN6google8protobuf8internal10LogMessageD1Ev(ptr noundef nonnull align 8 dereferenceable(56) %5) #19
  call void @llvm.lifetime.end.p0(i64 56, ptr nonnull %5) #19
  br label %52

47:                                               ; preds = %32, %30
  %48 = landingpad { ptr, i32 }
          cleanup
  br label %51

49:                                               ; preds = %34
  %50 = landingpad { ptr, i32 }
          cleanup
  call void @llvm.lifetime.end.p0(i64 1, ptr nonnull %8) #19
  br label %51

51:                                               ; preds = %47, %49
  %.pn31 = phi { ptr, i32 } [ %50, %49 ], [ %48, %47 ]
  call void @_ZN6google8protobuf8internal10LogMessageD1Ev(ptr noundef nonnull align 8 dereferenceable(56) %7) #19
  call void @llvm.lifetime.end.p0(i64 56, ptr nonnull %7) #19
  br label %52

52:                                               ; preds = %51, %46, %41
  %.pn31.pn = phi { ptr, i32 } [ %.pn31, %51 ], [ %.pn29, %46 ], [ %.pn, %41 ]
  resume { ptr, i32 } %.pn31.pn
}